; Function Attrs: nounwind uwtable
define internal range(i32 -21, 11) i32 @cvNlsFPFunction(ptr noundef %0, ptr noundef %1, ptr noundef captures(address_is_null) %2) #0 {
  %4 = icmp eq ptr %2, null
  br i1 %4, label %5, label %6

5:                                                ; preds = %3
  tail call void (ptr, i32, i32, ptr, ptr, ptr, ...) @cvProcessError(ptr noundef null, i32 noundef -21, i32 noundef 405, ptr noundef nonnull @__func__.cvNlsFPFunction, ptr noundef nonnull @.str, ptr noundef nonnull @.str.1) #3
  br label %31

6:                                                ; preds = %3
  %7 = getelementptr inbounds nuw i8, ptr %2, i64 96
  %8 = load ptr, ptr %7, align 8, !tbaa !28
  %9 = getelementptr inbounds nuw i8, ptr %2, i64 208
  %10 = load ptr, ptr %9, align 8, !tbaa !29
  tail call void @N_VLinearSum(double noundef 1.000000e+00, ptr noundef %8, double noundef 1.000000e+00, ptr noundef %0, ptr noundef %10) #3
  %11 = getelementptr inbounds nuw i8, ptr %2, i64 992
  %12 = load ptr, ptr %11, align 8, !tbaa !27
  %13 = getelementptr inbounds nuw i8, ptr %2, i64 360
  %14 = load double, ptr %13, align 8, !tbaa !30
  %15 = load ptr, ptr %9, align 8, !tbaa !29
  %16 = getelementptr inbounds nuw i8, ptr %2, i64 24
  %17 = load ptr, ptr %16, align 8, !tbaa !32
  %18 = tail call i32 %12(double noundef %14, ptr noundef %15, ptr noundef %1, ptr noundef %17) #3
  %19 = getelementptr inbounds nuw i8, ptr %2, i64 864
  %20 = load i64, ptr %19, align 8, !tbaa !33
  %21 = add nsw i64 %20, 1
  store i64 %21, ptr %19, align 8, !tbaa !33
  %22 = icmp slt i32 %18, 0
  br i1 %22, label %31, label %23

23:                                               ; preds = %6
  %.not = icmp eq i32 %18, 0
  br i1 %.not, label %24, label %31

24:                                               ; preds = %23
  %25 = getelementptr inbounds nuw i8, ptr %2, i64 320
  %26 = load double, ptr %25, align 8, !tbaa !36
  %27 = getelementptr inbounds nuw i8, ptr %2, i64 104
  %28 = load ptr, ptr %27, align 8, !tbaa !28
  tail call void @N_VLinearSum(double noundef %26, ptr noundef %1, double noundef -1.000000e+00, ptr noundef %28, ptr noundef %1) #3
  %29 = getelementptr inbounds nuw i8, ptr %2, i64 640
  %30 = load double, ptr %29, align 8, !tbaa !34
  tail call void @N_VScale(double noundef %30, ptr noundef %1, ptr noundef %1) #3
  br label %31

31:                                               ; preds = %23, %6, %24, %5
  %.0 = phi i32 [ -21, %5 ], [ 0, %24 ], [ -8, %6 ], [ 10, %23 ]
  ret i32 %.0
}